; Function Attrs: mustprogress uwtable
define dso_local void @_ZN22cmGlobalNinjaGenerator14EncodeRuleNameERKNSt7__cxx1112basic_stringIcSt11char_traitsIcESaIcEEE(ptr dead_on_unwind noalias nonnull writable sret(%"class.std::__cxx11::basic_string") align 8 %0, ptr noundef nonnull align 8 dereferenceable(32) %1) local_unnamed_addr #3 align 2 personality ptr @__gxx_personality_v0 {
  %3 = alloca [16 x i8], align 16
  tail call void @_ZNSt7__cxx1112basic_stringIcSt11char_traitsIcESaIcEEC1Ev(ptr noundef nonnull align 8 dereferenceable(32) %0) #23
  %4 = tail call ptr @_ZNKSt7__cxx1112basic_stringIcSt11char_traitsIcESaIcEE5beginEv(ptr noundef nonnull align 8 dereferenceable(32) %1) #23
  %5 = tail call ptr @_ZNKSt7__cxx1112basic_stringIcSt11char_traitsIcESaIcEE3endEv(ptr noundef nonnull align 8 dereferenceable(32) %1) #23
  %.not19 = icmp eq ptr %4, %5
  br i1 %.not19, label %._crit_edge, label %.lr.ph

.lr.ph:                                           ; preds = %2, %16
  %.sroa.015.020 = phi ptr [ %17, %16 ], [ %4, %2 ]
  %6 = load i8, ptr %.sroa.015.020, align 1
  %7 = sext i8 %6 to i32
  %8 = call i32 @isalnum(i32 noundef %7) #27
  %.fr = freeze i32 %8
  %.not18 = icmp eq i32 %.fr, 0
  br i1 %.not18, label %switch.early.test, label %9

switch.early.test:                                ; preds = %.lr.ph
  switch i8 %6, label %13 [
    i8 95, label %9
    i8 45, label %9
  ]

9:                                                ; preds = %switch.early.test, %switch.early.test, %.lr.ph
  %10 = invoke noundef nonnull align 8 dereferenceable(32) ptr @_ZNSt7__cxx1112basic_stringIcSt11char_traitsIcESaIcEEpLEc(ptr noundef nonnull align 8 dereferenceable(32) %0, i8 noundef signext %6)
          to label %16 unwind label %11

11:                                               ; preds = %13, %9
  %12 = landingpad { ptr, i32 }
          cleanup
  call void @_ZNSt7__cxx1112basic_stringIcSt11char_traitsIcESaIcEED1Ev(ptr noundef nonnull align 8 dereferenceable(32) %0) #23
  resume { ptr, i32 } %12

13:                                               ; preds = %switch.early.test
  %14 = call i32 (ptr, i64, ptr, ...) @snprintf(ptr noundef nonnull dereferenceable(1) %3, i64 noundef 16, ptr noundef nonnull @.str.11, i32 noundef %7) #23
  %15 = invoke noundef nonnull align 8 dereferenceable(32) ptr @_ZNSt7__cxx1112basic_stringIcSt11char_traitsIcESaIcEEpLEPKc(ptr noundef nonnull align 8 dereferenceable(32) %0, ptr noundef nonnull %3)
          to label %16 unwind label %11

16:                                               ; preds = %9, %13
  %17 = getelementptr inbounds i8, ptr %.sroa.015.020, i64 1
  %.not = icmp eq ptr %17, %5
  br i1 %.not, label %._crit_edge, label %.lr.ph

._crit_edge:                                      ; preds = %16, %2
  ret void
}